target datalayout = "e-m:e-p270:32:32-p271:32:32-p272:64:64-i64:64-i128:128-f80:128-n8:16:32:64-S128"
target triple = "x86_64-pc-linux-gnu"

%struct.nghttp2_session = type { %struct.nghttp2_map, %struct.nghttp2_outbound_queue, %struct.nghttp2_outbound_queue, %struct.nghttp2_outbound_queue, [8 x %struct.anon], %struct.nghttp2_active_outbound_item, %struct.nghttp2_inbound_frame, %struct.nghttp2_hd_deflater, %struct.nghttp2_hd_inflater, %struct.nghttp2_session_callbacks, %struct.nghttp2_mem, ptr, ptr, %struct.nghttp2_ratelim, i64, i64, i64, i64, i64, i64, i64, i64, i64, i64, i64, i64, i64, i64, i32, i32, i32, i32, i32, i32, i32, i32, i32, i32, i32, i32, i8, %struct.nghttp2_settings_storage, %struct.nghttp2_settings_storage, i32, i32, i32, i8, i8, i8, i8, i8, i8, [32 x i8] }
%struct.nghttp2_map = type { ptr, ptr, i64, i64 }
%struct.nghttp2_outbound_queue = type { ptr, ptr, i64 }
%struct.anon = type { %struct.nghttp2_pq }
%struct.nghttp2_pq = type { ptr, ptr, i64, i64, ptr }
%struct.nghttp2_active_outbound_item = type { ptr, %struct.nghttp2_bufs, i32 }
%struct.nghttp2_bufs = type { ptr, ptr, ptr, i64, i64, i64, i64, i64 }
%struct.nghttp2_inbound_frame = type { %union.nghttp2_frame, %union.nghttp2_ext_frame_payload, ptr, %struct.nghttp2_buf, %struct.nghttp2_buf, ptr, i64, i64, i64, i64, i32, [32 x i8] }
%union.nghttp2_frame = type { %struct.nghttp2_headers }
%struct.nghttp2_headers = type { %struct.nghttp2_frame_hd, i64, %struct.nghttp2_priority_spec, ptr, i64, i32 }
%struct.nghttp2_frame_hd = type { i64, i32, i8, i8, i8 }
%struct.nghttp2_priority_spec = type { i32, i32, i8 }
%union.nghttp2_ext_frame_payload = type { %struct.nghttp2_ext_altsvc }
%struct.nghttp2_ext_altsvc = type { ptr, i64, ptr, i64 }
%struct.nghttp2_buf = type { ptr, ptr, ptr, ptr, ptr }
%struct.nghttp2_hd_deflater = type { %struct.nghttp2_hd_context, %struct.nghttp2_hd_map, i64, i64, i8 }
%struct.nghttp2_hd_context = type { %struct.nghttp2_hd_ringbuf, ptr, i64, i64, i32, i8 }
%struct.nghttp2_hd_ringbuf = type { ptr, i64, i64, i64 }
%struct.nghttp2_hd_map = type { [128 x ptr] }
%struct.nghttp2_hd_inflater = type { %struct.nghttp2_hd_context, %struct.nghttp2_hd_huff_decode_context, %struct.nghttp2_buf, %struct.nghttp2_buf, ptr, ptr, ptr, ptr, i64, i64, i64, i64, i64, i32, i32, i8, i8, i8 }
%struct.nghttp2_hd_huff_decode_context = type { i16 }
%struct.nghttp2_session_callbacks = type { ptr, ptr, ptr, ptr, ptr, ptr, ptr, ptr, ptr, ptr, ptr, ptr, ptr, ptr, ptr, ptr, ptr, ptr, ptr, ptr, ptr, ptr, ptr, ptr, ptr, ptr, ptr, ptr }
%struct.nghttp2_mem = type { ptr, ptr, ptr, ptr, ptr }
%struct.nghttp2_ratelim = type { i64, i64, i64, i64 }
%struct.nghttp2_settings_storage = type { i32, i32, i32, i32, i32, i32, i32, i32 }

; Function Attrs: nounwind uwtable
define internal i32 @session_terminate_session(ptr noundef %0, i32 noundef %1, i32 noundef %2, ptr noundef %3) #0 {
  %5 = alloca i32, align 4
  %6 = alloca ptr, align 8
  %7 = alloca i32, align 4
  %8 = alloca i32, align 4
  %9 = alloca ptr, align 8
  %10 = alloca i32, align 4
  %11 = alloca ptr, align 8
  %12 = alloca i64, align 8
  %13 = alloca i32, align 4
  store ptr %0, ptr %6, align 8, !tbaa !7
  store i32 %1, ptr %7, align 4, !tbaa !3
  store i32 %2, ptr %8, align 4, !tbaa !3
  store ptr %3, ptr %9, align 8, !tbaa !38
  call void @llvm.lifetime.start.p0(i64 4, ptr %10) #10
  call void @llvm.lifetime.start.p0(i64 8, ptr %11) #10
  call void @llvm.lifetime.start.p0(i64 8, ptr %12) #10
  %14 = load ptr, ptr %6, align 8, !tbaa !7
  %15 = getelementptr inbounds nuw %struct.nghttp2_session, ptr %14, i32 0, i32 50
  %16 = load i8, ptr %15, align 4, !tbaa !39
  %17 = zext i8 %16 to i32
  %18 = and i32 %17, 1
  %19 = icmp ne i32 %18, 0
  br i1 %19, label %20, label %21

20:                                               ; preds = %4
  store i32 0, ptr %5, align 4
  store i32 1, ptr %13, align 4
  br label %50

21:                                               ; preds = %4
  %22 = load ptr, ptr %6, align 8, !tbaa !7
  %23 = getelementptr inbounds nuw %struct.nghttp2_session, ptr %22, i32 0, i32 6
  %24 = getelementptr inbounds nuw %struct.nghttp2_inbound_frame, ptr %23, i32 0, i32 10
  store i32 15, ptr %24, align 8, !tbaa !40
  %25 = load ptr, ptr %9, align 8, !tbaa !38
  %26 = icmp eq ptr %25, null
  br i1 %26, label %27, label %28

27:                                               ; preds = %21
  store ptr null, ptr %11, align 8, !tbaa !38
  store i64 0, ptr %12, align 8, !tbaa !41
  br label %32

28:                                               ; preds = %21
  %29 = load ptr, ptr %9, align 8, !tbaa !38
  store ptr %29, ptr %11, align 8, !tbaa !38
  %30 = load ptr, ptr %9, align 8, !tbaa !38
  %31 = call i64 @strlen(ptr noundef %30) #11
  store i64 %31, ptr %12, align 8, !tbaa !41
  br label %32

32:                                               ; preds = %28, %27
  %33 = load ptr, ptr %6, align 8, !tbaa !7
  %34 = load i32, ptr %7, align 4, !tbaa !3
  %35 = load i32, ptr %8, align 4, !tbaa !3
  %36 = load ptr, ptr %11, align 8, !tbaa !38
  %37 = load i64, ptr %12, align 8, !tbaa !41
  %38 = call i32 @nghttp2_session_add_goaway(ptr noundef %33, i32 noundef %34, i32 noundef %35, ptr noundef %36, i64 noundef %37, i8 noundef zeroext 1)
  store i32 %38, ptr %10, align 4, !tbaa !3
  %39 = load i32, ptr %10, align 4, !tbaa !3
  %40 = icmp ne i32 %39, 0
  br i1 %40, label %41, label %43

41:                                               ; preds = %32
  %42 = load i32, ptr %10, align 4, !tbaa !3
  store i32 %42, ptr %5, align 4
  store i32 1, ptr %13, align 4
  br label %50

43:                                               ; preds = %32
  %44 = load ptr, ptr %6, align 8, !tbaa !7
  %45 = getelementptr inbounds nuw %struct.nghttp2_session, ptr %44, i32 0, i32 50
  %46 = load i8, ptr %45, align 4, !tbaa !39
  %47 = zext i8 %46 to i32
  %48 = or i32 %47, 1
  %49 = trunc i32 %48 to i8
  store i8 %49, ptr %45, align 4, !tbaa !39
  store i32 0, ptr %5, align 4
  store i32 1, ptr %13, align 4
  br label %50

50:                                               ; preds = %43, %41, %20
  call void @llvm.lifetime.end.p0(i64 8, ptr %12) #10
  call void @llvm.lifetime.end.p0(i64 8, ptr %11) #10
  call void @llvm.lifetime.end.p0(i64 4, ptr %10) #10
  %51 = load i32, ptr %5, align 4
  ret i32 %51
}

; Function Attrs: nounwind uwtable
define hidden i32 @nghttp2_session_terminate_session_with_reason(ptr noundef %0, i32 noundef %1, ptr noundef %2) #0 {
  %4 = alloca ptr, align 8
  %5 = alloca i32, align 4
  %6 = alloca ptr, align 8
  store ptr %0, ptr %4, align 8, !tbaa !7
  store i32 %1, ptr %5, align 4, !tbaa !3
  store ptr %2, ptr %6, align 8, !tbaa !38
  %7 = load ptr, ptr %4, align 8, !tbaa !7
  %8 = load ptr, ptr %4, align 8, !tbaa !7
  %9 = getelementptr inbounds nuw %struct.nghttp2_session, ptr %8, i32 0, i32 31
  %10 = load i32, ptr %9, align 4, !tbaa !10
  %11 = load i32, ptr %5, align 4, !tbaa !3
  %12 = load ptr, ptr %6, align 8, !tbaa !38
  %13 = call i32 @session_terminate_session(ptr noundef %7, i32 noundef %10, i32 noundef %11, ptr noundef %12)
  ret i32 %13
}

; Function Attrs: nounwind uwtable
define internal i32 @get_error_code_from_lib_error_code(i32 noundef %0) #0 {
  %2 = alloca i32, align 4
  %3 = alloca i32, align 4
  store i32 %0, ptr %3, align 4, !tbaa !3
  %4 = load i32, ptr %3, align 4, !tbaa !3
  switch i32 %4, label %11 [
    i32 -510, label %5
    i32 -523, label %6
    i32 -522, label %7
    i32 -524, label %8
    i32 -533, label %9
    i32 -505, label %10
    i32 -531, label %10
    i32 -532, label %10
  ]

5:                                                ; preds = %1
  store i32 5, ptr %2, align 4
  br label %12

6:                                                ; preds = %1
  store i32 9, ptr %2, align 4
  br label %12

7:                                                ; preds = %1
  store i32 6, ptr %2, align 4
  br label %12

8:                                                ; preds = %1
  store i32 3, ptr %2, align 4
  br label %12

9:                                                ; preds = %1
  store i32 7, ptr %2, align 4
  br label %12

10:                                               ; preds = %1, %1, %1
  store i32 1, ptr %2, align 4
  br label %12

11:                                               ; preds = %1
  store i32 2, ptr %2, align 4
  br label %12

12:                                               ; preds = %11, %10, %9, %8, %7, %6, %5
  %13 = load i32, ptr %2, align 4
  ret i32 %13
}

; Function Attrs: nounwind uwtable
define internal i32 @session_handle_invalid_connection(ptr noundef %0, ptr noundef %1, i32 noundef %2, ptr noundef %3) #0 {
  %5 = alloca i32, align 4
  %6 = alloca ptr, align 8
  %7 = alloca ptr, align 8
  %8 = alloca i32, align 4
  %9 = alloca ptr, align 8
  store ptr %0, ptr %6, align 8, !tbaa !7
  store ptr %1, ptr %7, align 8, !tbaa !53
  store i32 %2, ptr %8, align 4, !tbaa !3
  store ptr %3, ptr %9, align 8, !tbaa !38
  %10 = load ptr, ptr %6, align 8, !tbaa !7
  %11 = getelementptr inbounds nuw %struct.nghttp2_session, ptr %10, i32 0, i32 9
  %12 = getelementptr inbounds nuw %struct.nghttp2_session_callbacks, ptr %11, i32 0, i32 5
  %13 = load ptr, ptr %12, align 8, !tbaa !170
  %14 = icmp ne ptr %13, null
  br i1 %14, label %15, label %30

15:                                               ; preds = %4
  %16 = load ptr, ptr %6, align 8, !tbaa !7
  %17 = getelementptr inbounds nuw %struct.nghttp2_session, ptr %16, i32 0, i32 9
  %18 = getelementptr inbounds nuw %struct.nghttp2_session_callbacks, ptr %17, i32 0, i32 5
  %19 = load ptr, ptr %18, align 8, !tbaa !170
  %20 = load ptr, ptr %6, align 8, !tbaa !7
  %21 = load ptr, ptr %7, align 8, !tbaa !53
  %22 = load i32, ptr %8, align 4, !tbaa !3
  %23 = load ptr, ptr %6, align 8, !tbaa !7
  %24 = getelementptr inbounds nuw %struct.nghttp2_session, ptr %23, i32 0, i32 11
  %25 = load ptr, ptr %24, align 8, !tbaa !94
  %26 = call i32 %19(ptr noundef %20, ptr noundef %21, i32 noundef %22, ptr noundef %25)
  %27 = icmp ne i32 %26, 0
  br i1 %27, label %28, label %29

28:                                               ; preds = %15
  store i32 -902, ptr %5, align 4
  br label %36

29:                                               ; preds = %15
  br label %30

30:                                               ; preds = %29, %4
  %31 = load ptr, ptr %6, align 8, !tbaa !7
  %32 = load i32, ptr %8, align 4, !tbaa !3
  %33 = call i32 @get_error_code_from_lib_error_code(i32 noundef %32)
  %34 = load ptr, ptr %9, align 8, !tbaa !38
  %35 = call i32 @nghttp2_session_terminate_session_with_reason(ptr noundef %31, i32 noundef %33, ptr noundef %34)
  store i32 %35, ptr %5, align 4
  br label %36

36:                                               ; preds = %30, %28
  %37 = load i32, ptr %5, align 4
  ret i32 %37
}