; Function Attrs: nounwind uwtable
define internal fastcc i32 @session_handle_invalid_connection(ptr noundef %0, ptr noundef %1, i32 noundef range(i32 1, 0) %2, ptr noundef readonly %3) unnamed_addr #1 {
  %5 = getelementptr inbounds nuw i8, ptr %0, i64 2160
  %6 = load ptr, ptr %5, align 8, !tbaa !174
  %.not = icmp eq ptr %6, null
  br i1 %.not, label %11, label %7

7:                                                ; preds = %4
  %8 = getelementptr inbounds nuw i8, ptr %0, i64 2384
  %9 = load ptr, ptr %8, align 8, !tbaa !93
  %10 = tail call i32 %6(ptr noundef nonnull %0, ptr noundef %1, i32 noundef %2, ptr noundef %9) #16
  %.not10 = icmp eq i32 %10, 0
  br i1 %.not10, label %11, label %nghttp2_session_terminate_session_with_reason.exit

11:                                               ; preds = %7, %4
  switch i32 %2, label %17 [
    i32 -510, label %get_error_code_from_lib_error_code.exit
    i32 -523, label %12
    i32 -522, label %13
    i32 -524, label %14
    i32 -533, label %15
    i32 -505, label %16
    i32 -531, label %16
    i32 -532, label %16
  ]

12:                                               ; preds = %11
  br label %get_error_code_from_lib_error_code.exit

13:                                               ; preds = %11
  br label %get_error_code_from_lib_error_code.exit

14:                                               ; preds = %11
  br label %get_error_code_from_lib_error_code.exit

15:                                               ; preds = %11
  br label %get_error_code_from_lib_error_code.exit

16:                                               ; preds = %11, %11, %11
  br label %get_error_code_from_lib_error_code.exit

17:                                               ; preds = %11
  br label %get_error_code_from_lib_error_code.exit

get_error_code_from_lib_error_code.exit:          ; preds = %11, %12, %13, %14, %15, %16, %17
  %.0.i = phi i32 [ 2, %17 ], [ 1, %16 ], [ 7, %15 ], [ 3, %14 ], [ 6, %13 ], [ 9, %12 ], [ 5, %11 ]
  %18 = getelementptr inbounds nuw i8, ptr %0, i64 2556
  %19 = load i32, ptr %18, align 4, !tbaa !35
  %20 = getelementptr inbounds nuw i8, ptr %0, i64 2676
  %21 = load i8, ptr %20, align 4, !tbaa !3
  %22 = and i8 %21, 1
  %.not.i.i = icmp eq i8 %22, 0
  br i1 %.not.i.i, label %23, label %nghttp2_session_terminate_session_with_reason.exit

23:                                               ; preds = %get_error_code_from_lib_error_code.exit
  %24 = getelementptr inbounds nuw i8, ptr %0, i64 728
  store i32 15, ptr %24, align 8, !tbaa !36
  %25 = icmp eq ptr %3, null
  br i1 %25, label %28, label %26

26:                                               ; preds = %23
  %27 = tail call i64 @strlen(ptr noundef nonnull readonly dereferenceable(1) %3) #15
  br label %28

28:                                               ; preds = %26, %23
  %.0.i.i = phi i64 [ %27, %26 ], [ 0, %23 ]
  %29 = tail call i32 @nghttp2_session_add_goaway(ptr noundef nonnull %0, i32 noundef %19, i32 noundef %.0.i, ptr noundef readonly %3, i64 noundef %.0.i.i, i8 noundef zeroext 1)
  %.not17.i.i = icmp eq i32 %29, 0
  br i1 %.not17.i.i, label %30, label %nghttp2_session_terminate_session_with_reason.exit

30:                                               ; preds = %28
  %31 = load i8, ptr %20, align 4, !tbaa !3
  %32 = or i8 %31, 1
  store i8 %32, ptr %20, align 4, !tbaa !3
  br label %nghttp2_session_terminate_session_with_reason.exit

nghttp2_session_terminate_session_with_reason.exit: ; preds = %30, %28, %get_error_code_from_lib_error_code.exit, %7
  %.0 = phi i32 [ -902, %7 ], [ 0, %30 ], [ 0, %get_error_code_from_lib_error_code.exit ], [ %29, %28 ]
  ret i32 %.0
}